target datalayout = "e-m:e-p270:32:32-p271:32:32-p272:64:64-i64:64-i128:128-f80:128-n8:16:32:64-S128"
target triple = "x86_64-pc-linux-gnu"

@pidfd = internal global i32 -1, align 4
@.str.117 = private unnamed_addr constant [23 x i8] c"SLURMCTLD_RECONF_PIDFD\00", align 1
@.str.243 = private unnamed_addr constant [42 x i8] c"%s: missing SLURMCTLD_RECONF_PIDFD envvar\00", align 1
@__func__._update_pidfile = private unnamed_addr constant [16 x i8] c"_update_pidfile\00", align 1

; Function Attrs: inlinehint nounwind willreturn memory(read) uwtable
define available_externally i32 @atoi(ptr noundef nonnull %0) #9 {
  %2 = alloca ptr, align 8
  store ptr %0, ptr %2, align 8
  %3 = load ptr, ptr %2, align 8
  %4 = call i64 @strtol(ptr noundef %3, ptr noundef null, i32 noundef 10) #11
  %5 = trunc i64 %4 to i32
  ret i32 %5
}

; Function Attrs: nounwind uwtable
define internal void @_update_pidfile() #0 {
  %1 = alloca ptr, align 8
  %2 = alloca i32, align 4
  call void @llvm.lifetime.start.p0(i64 8, ptr %1) #11
  %3 = call ptr @getenv(ptr noundef @.str.117) #11
  store ptr %3, ptr %1, align 8
  %4 = load ptr, ptr %1, align 8
  %5 = icmp ne ptr %4, null
  br i1 %5, label %17, label %6

6:                                                ; preds = %0
  br label %7

7:                                                ; preds = %6
  br label %8

8:                                                ; preds = %7
  %9 = call i32 @get_log_level()
  %10 = icmp sge i32 %9, 5
  br i1 %10, label %11, label %12

11:                                               ; preds = %8
  call void (i32, ptr, ...) @log_var(i32 noundef 5, ptr noundef @.str.243, ptr noundef @__func__._update_pidfile)
  br label %12

12:                                               ; preds = %11, %8
  br label %13

13:                                               ; preds = %12
  br label %14

14:                                               ; preds = %13
  br label %15

15:                                               ; preds = %14
  br label %16

16:                                               ; preds = %15
  store i32 1, ptr %2, align 4
  br label %22

17:                                               ; preds = %0
  %18 = load ptr, ptr %1, align 8
  %19 = call i32 @atoi(ptr noundef %18) #15
  store i32 %19, ptr @pidfd, align 4
  %20 = load i32, ptr @pidfd, align 4
  %21 = call i32 @update_pidfile(i32 noundef %20)
  store i32 0, ptr %2, align 4
  br label %22

22:                                               ; preds = %17, %16
  call void @llvm.lifetime.end.p0(i64 8, ptr %1) #11
  %23 = load i32, ptr %2, align 4
  switch i32 %23, label %25 [
    i32 0, label %24
    i32 1, label %24
  ]

24:                                               ; preds = %22, %22
  ret void

25:                                               ; preds = %22
  unreachable
}