; Function Attrs: nounwind uwtable
define internal fastcc void @_update_pidfile() unnamed_addr #6 {
  %1 = tail call ptr @getenv(ptr noundef nonnull @.str.117) #19
  %.not = icmp eq ptr %1, null
  br i1 %.not, label %2, label %6

2:                                                ; preds = %0
  %3 = tail call i32 @get_log_level() #19
  %4 = icmp sgt i32 %3, 4
  br i1 %4, label %5, label %10

5:                                                ; preds = %2
  tail call void (i32, ptr, ...) @log_var(i32 noundef 5, ptr noundef nonnull @.str.243, ptr noundef nonnull @__func__._update_pidfile) #19
  br label %10

6:                                                ; preds = %0
  %7 = tail call i64 @strtol(ptr noundef nonnull captures(none) %1, ptr noundef null, i32 noundef 10) #19
  %8 = trunc i64 %7 to i32
  store i32 %8, ptr @pidfd, align 4
  %9 = tail call i32 @update_pidfile(i32 noundef %8) #19
  br label %10

10:                                               ; preds = %2, %5, %6
  ret void
}